; Function Attrs: mustprogress nofree norecurse nosync nounwind memory(argmem: readwrite) uwtable
define dso_local noundef range(i32 0, 3) i32 @_ZNKSt3__115__codecvt_utf16IDiLb1EE6do_outER11__mbstate_tPKDiS5_RS5_PcS7_RS7_(ptr noundef nonnull readonly align 8 captures(none) dereferenceable(28) %0, ptr nonnull readnone align 4 captures(none) %1, ptr noundef %2, ptr noundef readnone captures(address) %3, ptr noundef nonnull writeonly align 8 captures(none) dereferenceable(8) %4, ptr noundef %5, ptr noundef %6, ptr noundef nonnull writeonly align 8 captures(none) dereferenceable(8) %7) unnamed_addr #24 align 2 {
  %9 = getelementptr inbounds nuw i8, ptr %0, i64 16
  %10 = load i64, ptr %9, align 8, !tbaa !472
  %11 = getelementptr inbounds nuw i8, ptr %0, i64 24
  %12 = load i32, ptr %11, align 8, !tbaa !474
  %13 = and i32 %12, 2
  %.not.i = icmp eq i32 %13, 0
  br i1 %.not.i, label %22, label %14

14:                                               ; preds = %8
  %15 = ptrtoint ptr %6 to i64
  %16 = ptrtoint ptr %5 to i64
  %17 = sub i64 %15, %16
  %18 = icmp slt i64 %17, 2
  br i1 %18, label %_ZNSt3__1L15ucs4_to_utf16leEPKjS1_RS1_PhS3_RS3_mNS_12codecvt_modeE.exit, label %19

19:                                               ; preds = %14
  %20 = getelementptr inbounds nuw i8, ptr %5, i64 1
  store i8 -1, ptr %5, align 1, !tbaa !4
  %21 = getelementptr inbounds nuw i8, ptr %5, i64 2
  store i8 -2, ptr %20, align 1, !tbaa !4
  br label %22

22:                                               ; preds = %19, %8
  %.0 = phi ptr [ %5, %8 ], [ %21, %19 ]
  %23 = icmp ult ptr %2, %3
  br i1 %23, label %.lr.ph.i, label %_ZNSt3__1L15ucs4_to_utf16leEPKjS1_RS1_PhS3_RS3_mNS_12codecvt_modeE.exit

.lr.ph.i:                                         ; preds = %22
  %24 = ptrtoint ptr %6 to i64
  br label %25

25:                                               ; preds = %62, %.lr.ph.i
  %.024 = phi ptr [ %2, %.lr.ph.i ], [ %64, %62 ]
  %.1 = phi ptr [ %.0, %.lr.ph.i ], [ %63, %62 ]
  %26 = load i32, ptr %.024, align 4, !tbaa !27
  %27 = and i32 %26, -2048
  %28 = icmp eq i32 %27, 55296
  %29 = zext i32 %26 to i64
  %30 = icmp ult i64 %10, %29
  %or.cond.i = or i1 %28, %30
  br i1 %or.cond.i, label %_ZNSt3__1L15ucs4_to_utf16leEPKjS1_RS1_PhS3_RS3_mNS_12codecvt_modeE.exit, label %31

31:                                               ; preds = %25
  %32 = icmp ult i32 %26, 65536
  %33 = ptrtoint ptr %.1 to i64
  %34 = sub i64 %24, %33
  br i1 %32, label %35, label %42

35:                                               ; preds = %31
  %36 = icmp slt i64 %34, 2
  br i1 %36, label %_ZNSt3__1L15ucs4_to_utf16leEPKjS1_RS1_PhS3_RS3_mNS_12codecvt_modeE.exit, label %37

37:                                               ; preds = %35
  %38 = trunc i32 %26 to i8
  %39 = getelementptr inbounds nuw i8, ptr %.1, i64 1
  store i8 %38, ptr %.1, align 1, !tbaa !4
  %40 = lshr i32 %26, 8
  %41 = trunc nuw i32 %40 to i8
  br label %62

42:                                               ; preds = %31
  %43 = icmp slt i64 %34, 4
  br i1 %43, label %_ZNSt3__1L15ucs4_to_utf16leEPKjS1_RS1_PhS3_RS3_mNS_12codecvt_modeE.exit, label %44

44:                                               ; preds = %42
  %45 = lshr i32 %26, 10
  %46 = and i32 %45, 1984
  %47 = add nuw nsw i32 %46, 16320
  %48 = and i32 %45, 63
  %49 = or disjoint i32 %47, %48
  %50 = trunc i32 %49 to i8
  %51 = getelementptr inbounds nuw i8, ptr %.1, i64 1
  store i8 %50, ptr %.1, align 1, !tbaa !4
  %52 = lshr i32 %47, 8
  %53 = trunc nuw nsw i32 %52 to i8
  %54 = or i8 %53, -40
  %55 = getelementptr inbounds nuw i8, ptr %.1, i64 2
  store i8 %54, ptr %51, align 1, !tbaa !4
  %56 = trunc i32 %26 to i8
  %57 = getelementptr inbounds nuw i8, ptr %.1, i64 3
  store i8 %56, ptr %55, align 1, !tbaa !4
  %58 = lshr i32 %26, 8
  %59 = trunc i32 %58 to i8
  %60 = and i8 %59, 3
  %61 = or disjoint i8 %60, -36
  br label %62

62:                                               ; preds = %44, %37
  %.2 = phi ptr [ %39, %37 ], [ %57, %44 ]
  %.sink.i = phi i8 [ %41, %37 ], [ %61, %44 ]
  %63 = getelementptr inbounds nuw i8, ptr %.2, i64 1
  store i8 %.sink.i, ptr %.2, align 1, !tbaa !4
  %64 = getelementptr inbounds nuw i8, ptr %.024, i64 4
  %65 = icmp ult ptr %64, %3
  br i1 %65, label %25, label %_ZNSt3__1L15ucs4_to_utf16leEPKjS1_RS1_PhS3_RS3_mNS_12codecvt_modeE.exit, !llvm.loop !454

_ZNSt3__1L15ucs4_to_utf16leEPKjS1_RS1_PhS3_RS3_mNS_12codecvt_modeE.exit: ; preds = %25, %35, %42, %62, %14, %22
  %.125 = phi ptr [ %2, %22 ], [ %2, %14 ], [ %.024, %42 ], [ %64, %62 ], [ %.024, %35 ], [ %.024, %25 ]
  %.3 = phi ptr [ %.0, %22 ], [ %5, %14 ], [ %.1, %42 ], [ %63, %62 ], [ %.1, %35 ], [ %.1, %25 ]
  %.0.i = phi i32 [ 0, %22 ], [ 1, %14 ], [ 1, %42 ], [ 0, %62 ], [ 1, %35 ], [ 2, %25 ]
  %66 = ptrtoint ptr %.125 to i64
  %67 = ptrtoint ptr %2 to i64
  %68 = sub i64 %66, %67
  %69 = getelementptr inbounds i8, ptr %2, i64 %68
  store ptr %69, ptr %4, align 8, !tbaa !330
  %70 = ptrtoint ptr %.3 to i64
  %71 = ptrtoint ptr %5 to i64
  %72 = sub i64 %70, %71
  %73 = getelementptr inbounds i8, ptr %5, i64 %72
  store ptr %73, ptr %7, align 8, !tbaa !72
  ret i32 %.0.i
}